; Function Attrs: nounwind uwtable
define zeroext i8 @l_Lean_Compiler_LCNF_AlphaEqv_withParams_go___at_Lean_Compiler_LCNF_AlphaEqv_eqvAlts___spec__1___lambda__1(ptr noundef %0, ptr noundef %1, ptr noundef %2, ptr noundef readnone captures(none) %3, ptr noundef %4, ptr noundef readnone captures(none) %5, ptr noundef %6, ptr noundef readonly captures(none) %7, ptr noundef readonly captures(none) %8, ptr readnone captures(none) %9, ptr noundef %10) local_unnamed_addr #0 {
  %12 = getelementptr inbounds nuw i8, ptr %0, i64 8
  %13 = load ptr, ptr %12, align 8, !tbaa !4
  %14 = ptrtoint ptr %13 to i64
  %15 = and i64 %14, 1
  %.not = icmp eq i64 %15, 0
  br i1 %.not, label %16, label %lean_inc.exit20

16:                                               ; preds = %11
  %.val.i = load i32, ptr %13, align 4, !tbaa !8
  %17 = icmp sgt i32 %.val.i, 0
  br i1 %17, label %18, label %20, !prof !11

18:                                               ; preds = %16
  %19 = add nuw i32 %.val.i, 1
  store i32 %19, ptr %13, align 4, !tbaa !8
  br label %lean_inc.exit20

20:                                               ; preds = %16
  %.not.i27 = icmp eq i32 %.val.i, 0
  br i1 %.not.i27, label %lean_inc.exit20, label %21

21:                                               ; preds = %20
  tail call void @lean_inc_ref_cold(ptr noundef nonnull %13) #4
  br label %lean_inc.exit20

lean_inc.exit20:                                  ; preds = %21, %20, %18, %11
  %22 = ptrtoint ptr %0 to i64
  %23 = and i64 %22, 1
  %.not32 = icmp eq i64 %23, 0
  br i1 %.not32, label %24, label %lean_dec.exit22

24:                                               ; preds = %lean_inc.exit20
  %25 = load i32, ptr %0, align 4, !tbaa !8
  %26 = icmp sgt i32 %25, 1
  br i1 %26, label %27, label %29, !prof !11

27:                                               ; preds = %24
  %28 = add nsw i32 %25, -1
  store i32 %28, ptr %0, align 4, !tbaa !8
  br label %lean_dec.exit22

29:                                               ; preds = %24
  %.not.i = icmp eq i32 %25, 0
  br i1 %.not.i, label %lean_dec.exit22, label %30

30:                                               ; preds = %29
  tail call void @lean_dec_ref_cold(ptr noundef nonnull %0) #4
  br label %lean_dec.exit22

lean_dec.exit22:                                  ; preds = %30, %29, %27, %lean_inc.exit20
  %31 = getelementptr inbounds nuw i8, ptr %1, i64 8
  %32 = load ptr, ptr %31, align 8, !tbaa !4
  %33 = ptrtoint ptr %32 to i64
  %34 = and i64 %33, 1
  %.not33 = icmp eq i64 %34, 0
  br i1 %.not33, label %35, label %lean_inc.exit

35:                                               ; preds = %lean_dec.exit22
  %.val.i28 = load i32, ptr %32, align 4, !tbaa !8
  %36 = icmp sgt i32 %.val.i28, 0
  br i1 %36, label %37, label %39, !prof !11

37:                                               ; preds = %35
  %38 = add nuw i32 %.val.i28, 1
  store i32 %38, ptr %32, align 4, !tbaa !8
  br label %lean_inc.exit

39:                                               ; preds = %35
  %.not.i29 = icmp eq i32 %.val.i28, 0
  br i1 %.not.i29, label %lean_inc.exit, label %40

40:                                               ; preds = %39
  tail call void @lean_inc_ref_cold(ptr noundef nonnull %32) #4
  br label %lean_inc.exit

lean_inc.exit:                                    ; preds = %40, %39, %37, %lean_dec.exit22
  %41 = ptrtoint ptr %1 to i64
  %42 = and i64 %41, 1
  %.not34 = icmp eq i64 %42, 0
  br i1 %.not34, label %43, label %lean_dec.exit21

43:                                               ; preds = %lean_inc.exit
  %44 = load i32, ptr %1, align 4, !tbaa !8
  %45 = icmp sgt i32 %44, 1
  br i1 %45, label %46, label %48, !prof !11

46:                                               ; preds = %43
  %47 = add nsw i32 %44, -1
  store i32 %47, ptr %1, align 4, !tbaa !8
  br label %lean_dec.exit21

48:                                               ; preds = %43
  %.not.i23 = icmp eq i32 %44, 0
  br i1 %.not.i23, label %lean_dec.exit21, label %49

49:                                               ; preds = %48
  tail call void @lean_dec_ref_cold(ptr noundef nonnull %1) #4
  br label %lean_dec.exit21

lean_dec.exit21:                                  ; preds = %49, %48, %46, %lean_inc.exit
  %50 = ptrtoint ptr %2 to i64
  %51 = and i64 %50, 1
  %.not35 = icmp eq i64 %51, 0
  br i1 %.not35, label %.critedge.i, label %52, !prof !12

52:                                               ; preds = %lean_dec.exit21
  %53 = lshr i64 %50, 1
  %54 = add nuw i64 %53, 1
  %55 = icmp sgt i64 %54, -1
  br i1 %55, label %56, label %60, !prof !11

56:                                               ; preds = %52
  %57 = shl nuw i64 %54, 1
  %58 = or disjoint i64 %57, 1
  %59 = inttoptr i64 %58 to ptr
  br label %lean_nat_add.exit

60:                                               ; preds = %52
  %61 = tail call ptr @lean_big_usize_to_nat(i64 noundef range(i64 0, -1) %54) #4
  br label %lean_nat_add.exit

.critedge.i:                                      ; preds = %lean_dec.exit21
  %62 = tail call ptr @lean_nat_big_add(ptr noundef %2, ptr noundef nonnull inttoptr (i64 3 to ptr)) #4
  br label %lean_nat_add.exit

lean_nat_add.exit:                                ; preds = %60, %56, %.critedge.i
  %.0.i = phi ptr [ %62, %.critedge.i ], [ %59, %56 ], [ %61, %60 ]
  %63 = tail call ptr @l_Lean_RBNode_insert___at_Lean_FVarIdMap_insert___spec__1___rarg(ptr noundef %10, ptr noundef %32, ptr noundef %13) #4
  %64 = tail call zeroext i8 @l_Lean_Compiler_LCNF_AlphaEqv_withParams_go___at_Lean_Compiler_LCNF_AlphaEqv_eqvAlts___spec__1(ptr noundef %3, ptr noundef %4, ptr noundef %5, ptr noundef %6, ptr nonnull poison, ptr noundef %7, ptr noundef %8, ptr noundef %.0.i, ptr noundef %63)
  %65 = ptrtoint ptr %.0.i to i64
  %66 = and i64 %65, 1
  %.not36 = icmp eq i64 %66, 0
  br i1 %.not36, label %67, label %lean_dec.exit

67:                                               ; preds = %lean_nat_add.exit
  %68 = load i32, ptr %.0.i, align 4, !tbaa !8
  %69 = icmp sgt i32 %68, 1
  br i1 %69, label %70, label %72, !prof !11

70:                                               ; preds = %67
  %71 = add nsw i32 %68, -1
  store i32 %71, ptr %.0.i, align 4, !tbaa !8
  br label %lean_dec.exit

72:                                               ; preds = %67
  %.not.i25 = icmp eq i32 %68, 0
  br i1 %.not.i25, label %lean_dec.exit, label %73

73:                                               ; preds = %72
  tail call void @lean_dec_ref_cold(ptr noundef nonnull %.0.i) #4
  br label %lean_dec.exit

lean_dec.exit:                                    ; preds = %73, %72, %70, %lean_nat_add.exit
  ret i8 %64
}